target datalayout = "e-m:e-p270:32:32-p271:32:32-p272:64:64-i64:64-i128:128-f80:128-n8:16:32:64-S128"
target triple = "x86_64-unknown-linux-gnu"

%"class.std::chrono::duration" = type { i64 }
%"class.std::__cxx11::basic_string" = type { %"struct.std::__cxx11::basic_string<char>::_Alloc_hider", i64, %union.anon }
%"struct.std::__cxx11::basic_string<char>::_Alloc_hider" = type { ptr }
%union.anon = type { i64, [8 x i8] }
%"class.proxygen::FileServerListGenerator::FileGenerator" = type { %"class.proxygen::ServerListGenerator::Generator", ptr, ptr }
%"class.proxygen::ServerListGenerator::Generator" = type { ptr }
%"struct.proxygen::FileServerListGenerator::Params" = type <{ %"class.std::__cxx11::basic_string", i32, [4 x i8], %"class.std::__cxx11::basic_string", i16, [6 x i8] }>
%"class.proxygen::FileServerListGenerator" = type { %"class.proxygen::ServerListGenerator.base", [4 x i8], %"struct.proxygen::FileServerListGenerator::Params" }
%"class.proxygen::ServerListGenerator.base" = type <{ ptr, ptr, i32 }>

; Function Attrs: mustprogress nounwind uwtable
define linkonce_odr void @_ZN8proxygen19ServerListGenerator9GeneratorC2Ev(ptr noundef nonnull align 8 dereferenceable(8) %this) unnamed_addr #2 comdat align 2 {
entry:
  %this.addr = alloca ptr, align 8
  store ptr %this, ptr %this.addr, align 8
  %this1 = load ptr, ptr %this.addr, align 8
  store ptr getelementptr inbounds ({ [5 x ptr] }, ptr @_ZTVN8proxygen19ServerListGenerator9GeneratorE, i32 0, i32 0, i32 2), ptr %this1, align 8
  ret void
}

; Function Attrs: mustprogress nounwind uwtable
define linkonce_odr void @_ZN8proxygen23FileServerListGenerator13FileGeneratorC2EPNS0_6ParamsEPNS_19ServerListGenerator8CallbackE(ptr noundef nonnull align 8 dereferenceable(24) %this, ptr noundef %params, ptr noundef %callback) unnamed_addr #2 comdat align 2 {
entry:
  %this.addr = alloca ptr, align 8
  %params.addr = alloca ptr, align 8
  %callback.addr = alloca ptr, align 8
  store ptr %this, ptr %this.addr, align 8
  store ptr %params, ptr %params.addr, align 8
  store ptr %callback, ptr %callback.addr, align 8
  %this1 = load ptr, ptr %this.addr, align 8
  call void @_ZN8proxygen19ServerListGenerator9GeneratorC2Ev(ptr noundef nonnull align 8 dereferenceable(8) %this1) #15
  store ptr getelementptr inbounds ({ [7 x ptr] }, ptr @_ZTVN8proxygen23FileServerListGenerator13FileGeneratorE, i32 0, i32 0, i32 2), ptr %this1, align 8
  %params_ = getelementptr inbounds %"class.proxygen::FileServerListGenerator::FileGenerator", ptr %this1, i32 0, i32 1
  %0 = load ptr, ptr %params.addr, align 8
  store ptr %0, ptr %params_, align 8
  %callback_ = getelementptr inbounds %"class.proxygen::FileServerListGenerator::FileGenerator", ptr %this1, i32 0, i32 2
  %1 = load ptr, ptr %callback.addr, align 8
  store ptr %1, ptr %callback_, align 8
  ret void
}

; Function Attrs: mustprogress uwtable
define void @_ZN8proxygen23FileServerListGenerator11listServersEPNS_19ServerListGenerator8CallbackENSt6chrono8durationIlSt5ratioILl1ELl1000EEEE(ptr noundef nonnull align 8 dereferenceable(104) %this, ptr noundef %callback, i64 %timeout.coerce) unnamed_addr #0 align 2 personality ptr @__gxx_personality_v0 {
entry:
  %timeout = alloca %"class.std::chrono::duration", align 8
  %this.addr = alloca ptr, align 8
  %callback.addr = alloca ptr, align 8
  %gen = alloca ptr, align 8
  %exn.slot = alloca ptr, align 8
  %ehselector.slot = alloca i32, align 4
  %agg.tmp = alloca %"class.std::chrono::duration", align 8
  %coerce.dive = getelementptr inbounds %"class.std::chrono::duration", ptr %timeout, i32 0, i32 0
  store i64 %timeout.coerce, ptr %coerce.dive, align 8
  store ptr %this, ptr %this.addr, align 8
  store ptr %callback, ptr %callback.addr, align 8
  %this1 = load ptr, ptr %this.addr, align 8
  %call = call noalias noundef nonnull ptr @_Znwm(i64 noundef 24) #19
  %params_ = getelementptr inbounds %"class.proxygen::FileServerListGenerator", ptr %this1, i32 0, i32 2
  %0 = load ptr, ptr %callback.addr, align 8
  invoke void @_ZN8proxygen23FileServerListGenerator13FileGeneratorC2EPNS0_6ParamsEPNS_19ServerListGenerator8CallbackE(ptr noundef nonnull align 8 dereferenceable(24) %call, ptr noundef %params_, ptr noundef %0)
          to label %invoke.cont unwind label %lpad

invoke.cont:                                      ; preds = %entry
  store ptr %call, ptr %gen, align 8
  %1 = load ptr, ptr %callback.addr, align 8
  %2 = load ptr, ptr %gen, align 8
  call void @_ZN8proxygen19ServerListGenerator8Callback14resetGeneratorEPNS0_9GeneratorEb(ptr noundef nonnull align 8 dereferenceable(17) %1, ptr noundef %2, i1 noundef zeroext false)
  %3 = load ptr, ptr %gen, align 8
  call void @llvm.memcpy.p0.p0.i64(ptr align 8 %agg.tmp, ptr align 8 %timeout, i64 8, i1 false)
  %coerce.dive2 = getelementptr inbounds %"class.std::chrono::duration", ptr %agg.tmp, i32 0, i32 0
  %4 = load i64, ptr %coerce.dive2, align 8
  %vtable = load ptr, ptr %3, align 8
  %vfn = getelementptr inbounds ptr, ptr %vtable, i64 4
  %5 = load ptr, ptr %vfn, align 8
  call void %5(ptr noundef nonnull align 8 dereferenceable(24) %3, i64 %4)
  ret void

lpad:                                             ; preds = %entry
  %6 = landingpad { ptr, i32 }
          cleanup
  %7 = extractvalue { ptr, i32 } %6, 0
  store ptr %7, ptr %exn.slot, align 8
  %8 = extractvalue { ptr, i32 } %6, 1
  store i32 %8, ptr %ehselector.slot, align 4
  call void @_ZdlPv(ptr noundef %call) #20
  br label %eh.resume

eh.resume:                                        ; preds = %lpad
  %exn = load ptr, ptr %exn.slot, align 8
  %sel = load i32, ptr %ehselector.slot, align 4
  %lpad.val = insertvalue { ptr, i32 } poison, ptr %exn, 0
  %lpad.val3 = insertvalue { ptr, i32 } %lpad.val, i32 %sel, 1
  resume { ptr, i32 } %lpad.val3
}