; Function Attrs: mustprogress uwtable
define void @_ZN8proxygen23FileServerListGenerator11listServersEPNS_19ServerListGenerator8CallbackENSt6chrono8durationIlSt5ratioILl1ELl1000EEEE(ptr noundef nonnull align 8 dereferenceable(104) %this, ptr noundef %callback, i64 %timeout.coerce) unnamed_addr #0 align 2 personality ptr @__gxx_personality_v0 {
entry:
  %call = tail call noalias noundef nonnull dereferenceable(24) ptr @_Znwm(i64 noundef 24) #21
  %params_ = getelementptr inbounds i8, ptr %this, i64 24
  store ptr getelementptr inbounds ({ [7 x ptr] }, ptr @_ZTVN8proxygen23FileServerListGenerator13FileGeneratorE, i64 0, i32 0, i64 2), ptr %call, align 8
  %params_.i = getelementptr inbounds i8, ptr %call, i64 8
  store ptr %params_, ptr %params_.i, align 8
  %callback_.i = getelementptr inbounds i8, ptr %call, i64 16
  store ptr %callback, ptr %callback_.i, align 8
  tail call void @_ZN8proxygen19ServerListGenerator8Callback14resetGeneratorEPNS0_9GeneratorEb(ptr noundef nonnull align 8 dereferenceable(17) %callback, ptr noundef nonnull %call, i1 noundef zeroext false)
  %vtable = load ptr, ptr %call, align 8
  %vfn = getelementptr inbounds i8, ptr %vtable, i64 32
  %0 = load ptr, ptr %vfn, align 8
  tail call void %0(ptr noundef nonnull align 8 dereferenceable(24) %call, i64 %timeout.coerce)
  ret void
}